; Function Attrs: mustprogress uwtable
define void @_ZN8facebook5velox17VectorStreamGroup4readEPNS0_15ByteInputStreamEPNS0_6memory10MemoryPoolESt10shared_ptrIKNS0_7RowTypeEEPS7_INS0_9RowVectorEEPKNS0_11VectorSerde7OptionsE(ptr noundef %source, ptr noundef %pool, ptr nocapture noundef readonly %type, ptr noundef %result, ptr noundef %options) local_unnamed_addr #0 align 2 personality ptr @__gxx_personality_v0 {
entry:
  %agg.tmp = alloca %"class.std::shared_ptr.13", align 16
  %0 = load atomic i8, ptr @_ZGVZN8facebook5velox12_GLOBAL__N_118getVectorSerdeImplEvE5serde acquire, align 8
  %guard.uninitialized.i.i = icmp eq i8 %0, 0
  br i1 %guard.uninitialized.i.i, label %init.check.i.i, label %_ZN8facebook5velox12_GLOBAL__N_118getVectorSerdeImplEv.exit.i, !prof !6

init.check.i.i:                                   ; preds = %entry
  %1 = tail call i32 @__cxa_guard_acquire(ptr nonnull @_ZGVZN8facebook5velox12_GLOBAL__N_118getVectorSerdeImplEvE5serde) #21
  %tobool.not.i.i = icmp eq i32 %1, 0
  br i1 %tobool.not.i.i, label %_ZN8facebook5velox12_GLOBAL__N_118getVectorSerdeImplEv.exit.i, label %init.i.i

init.i.i:                                         ; preds = %init.check.i.i
  %2 = tail call i32 @__cxa_atexit(ptr nonnull @_ZNSt10unique_ptrIN8facebook5velox11VectorSerdeESt14default_deleteIS2_EED2Ev, ptr nonnull @_ZZN8facebook5velox12_GLOBAL__N_118getVectorSerdeImplEvE5serde, ptr nonnull @__dso_handle) #21
  tail call void @__cxa_guard_release(ptr nonnull @_ZGVZN8facebook5velox12_GLOBAL__N_118getVectorSerdeImplEvE5serde) #21
  br label %_ZN8facebook5velox12_GLOBAL__N_118getVectorSerdeImplEv.exit.i

_ZN8facebook5velox12_GLOBAL__N_118getVectorSerdeImplEv.exit.i: ; preds = %init.i.i, %init.check.i.i, %entry
  %3 = load ptr, ptr @_ZZN8facebook5velox12_GLOBAL__N_118getVectorSerdeImplEvE5serde, align 8
  %cmp.not.i = icmp eq ptr %3, null
  br i1 %cmp.not.i, label %if.then.i, label %_ZN8facebook5velox14getVectorSerdeEv.exit

if.then.i:                                        ; preds = %_ZN8facebook5velox12_GLOBAL__N_118getVectorSerdeImplEv.exit.i
  tail call void @llvm.trap()
  unreachable

_ZN8facebook5velox14getVectorSerdeEv.exit:        ; preds = %_ZN8facebook5velox12_GLOBAL__N_118getVectorSerdeImplEv.exit.i
  %_M_refcount.i.i = getelementptr inbounds i8, ptr %agg.tmp, i64 8
  %4 = load <2 x ptr>, ptr %type, align 8
  store <2 x ptr> %4, ptr %agg.tmp, align 16
  %5 = extractelement <2 x ptr> %4, i64 1
  %cmp.not.i.i.i = icmp eq ptr %5, null
  br i1 %cmp.not.i.i.i, label %_ZNSt10shared_ptrIKN8facebook5velox7RowTypeEEC2ERKS4_.exit, label %if.then.i.i.i

if.then.i.i.i:                                    ; preds = %_ZN8facebook5velox14getVectorSerdeEv.exit
  %_M_use_count.i.i.i.i = getelementptr inbounds i8, ptr %5, i64 8
  %6 = load i8, ptr @__libc_single_threaded, align 1
  %tobool.i.not.i.i.i.i = icmp eq i8 %6, 0
  br i1 %tobool.i.not.i.i.i.i, label %if.else.i.i.i.i.i, label %if.then.i.i.i.i.i

if.then.i.i.i.i.i:                                ; preds = %if.then.i.i.i
  %7 = load i32, ptr %_M_use_count.i.i.i.i, align 4
  %add.i.i.i.i.i = add nsw i32 %7, 1
  store i32 %add.i.i.i.i.i, ptr %_M_use_count.i.i.i.i, align 4
  br label %_ZNSt10shared_ptrIKN8facebook5velox7RowTypeEEC2ERKS4_.exit

if.else.i.i.i.i.i:                                ; preds = %if.then.i.i.i
  %8 = atomicrmw volatile add ptr %_M_use_count.i.i.i.i, i32 1 acq_rel, align 4
  br label %_ZNSt10shared_ptrIKN8facebook5velox7RowTypeEEC2ERKS4_.exit

_ZNSt10shared_ptrIKN8facebook5velox7RowTypeEEC2ERKS4_.exit: ; preds = %_ZN8facebook5velox14getVectorSerdeEv.exit, %if.then.i.i.i.i.i, %if.else.i.i.i.i.i
  %vtable = load ptr, ptr %3, align 8
  %vfn = getelementptr inbounds i8, ptr %vtable, i64 48
  %9 = load ptr, ptr %vfn, align 8
  invoke void %9(ptr noundef nonnull align 8 dereferenceable(8) %3, ptr noundef %source, ptr noundef %pool, ptr noundef nonnull %agg.tmp, ptr noundef %result, ptr noundef %options)
          to label %invoke.cont unwind label %lpad

invoke.cont:                                      ; preds = %_ZNSt10shared_ptrIKN8facebook5velox7RowTypeEEC2ERKS4_.exit
  %10 = load ptr, ptr %_M_refcount.i.i, align 8
  %cmp.not.i.i.i2 = icmp eq ptr %10, null
  br i1 %cmp.not.i.i.i2, label %_ZNSt10shared_ptrIKN8facebook5velox7RowTypeEED2Ev.exit, label %if.then.i.i.i3

if.then.i.i.i3:                                   ; preds = %invoke.cont
  %_M_use_count.i.i.i.i4 = getelementptr inbounds i8, ptr %10, i64 8
  %11 = load atomic i64, ptr %_M_use_count.i.i.i.i4 acquire, align 8
  %cmp.i.i.i.i = icmp eq i64 %11, 4294967297
  %12 = trunc i64 %11 to i32
  br i1 %cmp.i.i.i.i, label %if.then.i.i.i.i, label %if.end.i.i.i.i

if.then.i.i.i.i:                                  ; preds = %if.then.i.i.i3
  store i32 0, ptr %_M_use_count.i.i.i.i4, align 8
  %_M_weak_count.i.i.i.i = getelementptr inbounds i8, ptr %10, i64 12
  store i32 0, ptr %_M_weak_count.i.i.i.i, align 4
  %vtable.i.i.i.i = load ptr, ptr %10, align 8
  %vfn.i.i.i.i = getelementptr inbounds i8, ptr %vtable.i.i.i.i, i64 16
  %13 = load ptr, ptr %vfn.i.i.i.i, align 8
  call void %13(ptr noundef nonnull align 8 dereferenceable(16) %10) #21
  br label %if.end8.sink.split.i.i.i.i

if.end.i.i.i.i:                                   ; preds = %if.then.i.i.i3
  %14 = load i8, ptr @__libc_single_threaded, align 1
  %tobool.i.i.not.i.i.i.i = icmp eq i8 %14, 0
  br i1 %tobool.i.i.not.i.i.i.i, label %if.else.i.i.i.i.i7, label %if.then.i.i.i.i.i5

if.then.i.i.i.i.i5:                               ; preds = %if.end.i.i.i.i
  %add.i.i.i.i.i6 = add nsw i32 %12, -1
  store i32 %add.i.i.i.i.i6, ptr %_M_use_count.i.i.i.i4, align 4
  br label %_ZN9__gnu_cxx27__exchange_and_add_dispatchEPii.exit.i.i.i.i

if.else.i.i.i.i.i7:                               ; preds = %if.end.i.i.i.i
  %15 = atomicrmw volatile add ptr %_M_use_count.i.i.i.i4, i32 -1 acq_rel, align 4
  br label %_ZN9__gnu_cxx27__exchange_and_add_dispatchEPii.exit.i.i.i.i

_ZN9__gnu_cxx27__exchange_and_add_dispatchEPii.exit.i.i.i.i: ; preds = %if.else.i.i.i.i.i7, %if.then.i.i.i.i.i5
  %retval.i.0.i.i.i.i = phi i32 [ %12, %if.then.i.i.i.i.i5 ], [ %15, %if.else.i.i.i.i.i7 ]
  %cmp6.i.i.i.i = icmp eq i32 %retval.i.0.i.i.i.i, 1
  br i1 %cmp6.i.i.i.i, label %if.then7.i.i.i.i, label %_ZNSt10shared_ptrIKN8facebook5velox7RowTypeEED2Ev.exit

if.then7.i.i.i.i:                                 ; preds = %_ZN9__gnu_cxx27__exchange_and_add_dispatchEPii.exit.i.i.i.i
  %vtable.i.i.i.i.i.i = load ptr, ptr %10, align 8
  %vfn.i.i.i.i.i.i = getelementptr inbounds i8, ptr %vtable.i.i.i.i.i.i, i64 16
  %16 = load ptr, ptr %vfn.i.i.i.i.i.i, align 8
  call void %16(ptr noundef nonnull align 8 dereferenceable(16) %10) #21
  %_M_weak_count.i.i.i.i.i.i = getelementptr inbounds i8, ptr %10, i64 12
  %17 = load i8, ptr @__libc_single_threaded, align 1
  %tobool.i.i.not.i.i.i.i.i.i = icmp eq i8 %17, 0
  br i1 %tobool.i.i.not.i.i.i.i.i.i, label %if.else.i.i.i.i.i.i.i, label %if.then.i.i.i.i.i.i.i

if.then.i.i.i.i.i.i.i:                            ; preds = %if.then7.i.i.i.i
  %18 = load i32, ptr %_M_weak_count.i.i.i.i.i.i, align 4
  %add.i.i.i.i.i.i.i = add nsw i32 %18, -1
  store i32 %add.i.i.i.i.i.i.i, ptr %_M_weak_count.i.i.i.i.i.i, align 4
  br label %_ZN9__gnu_cxx27__exchange_and_add_dispatchEPii.exit.i.i.i.i.i.i

if.else.i.i.i.i.i.i.i:                            ; preds = %if.then7.i.i.i.i
  %19 = atomicrmw volatile add ptr %_M_weak_count.i.i.i.i.i.i, i32 -1 acq_rel, align 4
  br label %_ZN9__gnu_cxx27__exchange_and_add_dispatchEPii.exit.i.i.i.i.i.i

_ZN9__gnu_cxx27__exchange_and_add_dispatchEPii.exit.i.i.i.i.i.i: ; preds = %if.else.i.i.i.i.i.i.i, %if.then.i.i.i.i.i.i.i
  %retval.i.0.i.i.i.i.i.i = phi i32 [ %18, %if.then.i.i.i.i.i.i.i ], [ %19, %if.else.i.i.i.i.i.i.i ]
  %cmp.i.i.i.i.i.i = icmp eq i32 %retval.i.0.i.i.i.i.i.i, 1
  br i1 %cmp.i.i.i.i.i.i, label %if.end8.sink.split.i.i.i.i, label %_ZNSt10shared_ptrIKN8facebook5velox7RowTypeEED2Ev.exit

if.end8.sink.split.i.i.i.i:                       ; preds = %_ZN9__gnu_cxx27__exchange_and_add_dispatchEPii.exit.i.i.i.i.i.i, %if.then.i.i.i.i
  %vtable2.i.i.i.i.i.i = load ptr, ptr %10, align 8
  %vfn3.i.i.i.i.i.i = getelementptr inbounds i8, ptr %vtable2.i.i.i.i.i.i, i64 24
  %20 = load ptr, ptr %vfn3.i.i.i.i.i.i, align 8
  call void %20(ptr noundef nonnull align 8 dereferenceable(16) %10) #21
  br label %_ZNSt10shared_ptrIKN8facebook5velox7RowTypeEED2Ev.exit

_ZNSt10shared_ptrIKN8facebook5velox7RowTypeEED2Ev.exit: ; preds = %invoke.cont, %_ZN9__gnu_cxx27__exchange_and_add_dispatchEPii.exit.i.i.i.i, %_ZN9__gnu_cxx27__exchange_and_add_dispatchEPii.exit.i.i.i.i.i.i, %if.end8.sink.split.i.i.i.i
  ret void

lpad:                                             ; preds = %_ZNSt10shared_ptrIKN8facebook5velox7RowTypeEEC2ERKS4_.exit
  %21 = landingpad { ptr, i32 }
          cleanup
  call void @_ZNSt10shared_ptrIKN8facebook5velox7RowTypeEED2Ev(ptr noundef nonnull align 8 dereferenceable(16) %agg.tmp) #21
  resume { ptr, i32 } %21
}